target datalayout = "e-m:e-p270:32:32-p271:32:32-p272:64:64-i64:64-i128:128-f80:128-n8:16:32:64-S128"
target triple = "x86_64-pc-linux-gnu"

%struct.rb_shape = type { ptr, i64, i32, i32, i8, i8, i32, ptr }
%struct.general_ivar_set_result = type { i32, i8 }

@rb_eArgError = external global i64, align 8
@.str.16 = private unnamed_addr constant [14 x i8] c"../variable.c\00", align 1
@__const.general_ivar_set.result = private unnamed_addr constant { i32, i8, [3 x i8] } { i32 0, i8 1, [3 x i8] zeroinitializer }, align 4
@.str.42 = private unnamed_addr constant [28 x i8] c"too many instance variables\00", align 1

; Function Attrs: inlinehint nounwind sspstrong willreturn memory(none) uwtable
define internal zeroext i1 @RB_IMMEDIATE_P(i64 noundef %0) #5 {
  %2 = alloca i64, align 8
  store i64 %0, ptr %2, align 8, !tbaa !14
  %3 = load i64, ptr %2, align 8, !tbaa !14
  %4 = and i64 %3, 7
  %5 = icmp ne i64 %4, 0
  ret i1 %5
}

; Function Attrs: inlinehint nounwind sspstrong willreturn memory(none) uwtable
define internal zeroext i1 @RB_SPECIAL_CONST_P(i64 noundef %0) #5 {
  %2 = alloca i64, align 8
  store i64 %0, ptr %2, align 8, !tbaa !14
  %3 = load i64, ptr %2, align 8, !tbaa !14
  %4 = icmp eq i64 %3, 0
  br i1 %4, label %8, label %5

5:                                                ; preds = %1
  %6 = load i64, ptr %2, align 8, !tbaa !14
  %7 = call zeroext i1 @RB_IMMEDIATE_P(i64 noundef %6) #32
  br label %8

8:                                                ; preds = %5, %1
  %9 = phi i1 [ true, %1 ], [ %7, %5 ]
  ret i1 %9
}

; Function Attrs: inlinehint nounwind sspstrong uwtable
define internal i64 @rb_obj_written(i64 noundef %0, i64 noundef %1, i64 noundef %2, ptr noundef %3, i32 noundef %4) #6 {
  %6 = alloca i64, align 8
  %7 = alloca i64, align 8
  %8 = alloca i64, align 8
  %9 = alloca ptr, align 8
  %10 = alloca i32, align 4
  store i64 %0, ptr %6, align 8, !tbaa !14
  store i64 %1, ptr %7, align 8, !tbaa !14
  store i64 %2, ptr %8, align 8, !tbaa !14
  store ptr %3, ptr %9, align 8, !tbaa !16
  store i32 %4, ptr %10, align 4, !tbaa !51
  %11 = load i64, ptr %8, align 8, !tbaa !14
  %12 = call zeroext i1 @RB_SPECIAL_CONST_P(i64 noundef %11) #32
  br i1 %12, label %16, label %13

13:                                               ; preds = %5
  %14 = load i64, ptr %6, align 8, !tbaa !14
  %15 = load i64, ptr %8, align 8, !tbaa !14
  call void @rb_gc_writebarrier(i64 noundef %14, i64 noundef %15)
  br label %16

16:                                               ; preds = %13, %5
  %17 = load i64, ptr %6, align 8, !tbaa !14
  ret i64 %17
}

; Function Attrs: inlinehint nounwind sspstrong uwtable
define internal i64 @rb_obj_write(i64 noundef %0, ptr noundef %1, i64 noundef %2, ptr noundef %3, i32 noundef %4) #6 {
  %6 = alloca i64, align 8
  %7 = alloca ptr, align 8
  %8 = alloca i64, align 8
  %9 = alloca ptr, align 8
  %10 = alloca i32, align 4
  store i64 %0, ptr %6, align 8, !tbaa !14
  store ptr %1, ptr %7, align 8, !tbaa !49
  store i64 %2, ptr %8, align 8, !tbaa !14
  store ptr %3, ptr %9, align 8, !tbaa !16
  store i32 %4, ptr %10, align 4, !tbaa !51
  %11 = load i64, ptr %8, align 8, !tbaa !14
  %12 = load ptr, ptr %7, align 8, !tbaa !49
  store i64 %11, ptr %12, align 8, !tbaa !14
  %13 = load i64, ptr %6, align 8, !tbaa !14
  %14 = load i64, ptr %8, align 8, !tbaa !14
  %15 = load ptr, ptr %9, align 8, !tbaa !16
  %16 = load i32, ptr %10, align 4, !tbaa !51
  %17 = call i64 @rb_obj_written(i64 noundef %13, i64 noundef 36, i64 noundef %14, ptr noundef %15, i32 noundef %16)
  %18 = load i64, ptr %6, align 8, !tbaa !14
  ret i64 %18
}

; Function Attrs: nounwind sspstrong uwtable
define internal i64 @general_ivar_set(i64 noundef %0, i64 noundef %1, i64 noundef %2, ptr noundef %3, ptr noundef %4, ptr noundef %5, ptr noundef %6, ptr noundef %7, ptr noundef %8) #0 {
  %10 = alloca %struct.general_ivar_set_result, align 4
  %11 = alloca i64, align 8
  %12 = alloca i64, align 8
  %13 = alloca i64, align 8
  %14 = alloca ptr, align 8
  %15 = alloca ptr, align 8
  %16 = alloca ptr, align 8
  %17 = alloca ptr, align 8
  %18 = alloca ptr, align 8
  %19 = alloca ptr, align 8
  %20 = alloca ptr, align 8
  %21 = alloca i32, align 4
  %22 = alloca ptr, align 8
  %23 = alloca i32, align 4
  %24 = alloca ptr, align 8
  %25 = alloca ptr, align 8
  store i64 %0, ptr %11, align 8, !tbaa !14
  store i64 %1, ptr %12, align 8, !tbaa !14
  store i64 %2, ptr %13, align 8, !tbaa !14
  store ptr %3, ptr %14, align 8, !tbaa !40
  store ptr %4, ptr %15, align 8, !tbaa !40
  store ptr %5, ptr %16, align 8, !tbaa !40
  store ptr %6, ptr %17, align 8, !tbaa !40
  store ptr %7, ptr %18, align 8, !tbaa !40
  store ptr %8, ptr %19, align 8, !tbaa !40
  call void @llvm.memcpy.p0.p0.i64(ptr align 4 %10, ptr align 4 @__const.general_ivar_set.result, i64 8, i1 false)
  call void @llvm.lifetime.start.p0(i64 8, ptr %20) #30
  %26 = load i64, ptr %11, align 8, !tbaa !14
  %27 = call ptr @rb_shape_get_shape(i64 noundef %26)
  store ptr %27, ptr %20, align 8, !tbaa !42
  %28 = load ptr, ptr %20, align 8, !tbaa !42
  %29 = getelementptr inbounds nuw %struct.rb_shape, ptr %28, i32 0, i32 4
  %30 = load i8, ptr %29, align 8, !tbaa !44
  %31 = zext i8 %30 to i32
  %32 = icmp eq i32 %31, 4
  %33 = xor i1 %32, true
  %34 = xor i1 %33, true
  %35 = zext i1 %34 to i32
  %36 = sext i32 %35 to i64
  %37 = call i64 @llvm.expect.i64(i64 %36, i64 0)
  %38 = icmp ne i64 %37, 0
  br i1 %38, label %39, label %40

39:                                               ; preds = %9
  br label %120

40:                                               ; preds = %9
  %41 = load ptr, ptr %20, align 8, !tbaa !42
  %42 = load i64, ptr %12, align 8, !tbaa !14
  %43 = call zeroext i1 @rb_shape_get_iv_index(ptr noundef %41, i64 noundef %42, ptr noundef %21)
  br i1 %43, label %106, label %44

44:                                               ; preds = %40
  %45 = getelementptr inbounds nuw %struct.general_ivar_set_result, ptr %10, i32 0, i32 1
  store i8 0, ptr %45, align 4, !tbaa !110
  %46 = load ptr, ptr %20, align 8, !tbaa !42
  %47 = getelementptr inbounds nuw %struct.rb_shape, ptr %46, i32 0, i32 2
  %48 = load i32, ptr %47, align 8, !tbaa !111
  store i32 %48, ptr %21, align 4, !tbaa !51
  %49 = load i32, ptr %21, align 4, !tbaa !51
  %50 = icmp uge i32 %49, -1
  br i1 %50, label %51, label %53

51:                                               ; preds = %44
  %52 = load i64, ptr @rb_eArgError, align 8, !tbaa !14
  call void (i64, ptr, ...) @rb_raise(i64 noundef %52, ptr noundef @.str.42) #31
  unreachable

53:                                               ; preds = %44
  call void @llvm.lifetime.start.p0(i64 8, ptr %22) #30
  %54 = load ptr, ptr %20, align 8, !tbaa !42
  %55 = load i64, ptr %11, align 8, !tbaa !14
  %56 = load i64, ptr %12, align 8, !tbaa !14
  %57 = call ptr @rb_shape_get_next(ptr noundef %54, i64 noundef %55, i64 noundef %56)
  store ptr %57, ptr %22, align 8, !tbaa !42
  %58 = load ptr, ptr %22, align 8, !tbaa !42
  %59 = getelementptr inbounds nuw %struct.rb_shape, ptr %58, i32 0, i32 4
  %60 = load i8, ptr %59, align 8, !tbaa !44
  %61 = zext i8 %60 to i32
  %62 = icmp eq i32 %61, 4
  %63 = xor i1 %62, true
  %64 = xor i1 %63, true
  %65 = zext i1 %64 to i32
  %66 = sext i32 %65 to i64
  %67 = call i64 @llvm.expect.i64(i64 %66, i64 0)
  %68 = icmp ne i64 %67, 0
  br i1 %68, label %69, label %73

69:                                               ; preds = %53
  %70 = load ptr, ptr %18, align 8, !tbaa !40
  %71 = load i64, ptr %11, align 8, !tbaa !14
  %72 = load ptr, ptr %14, align 8, !tbaa !40
  call void %70(i64 noundef %71, ptr noundef %72)
  store i32 2, ptr %23, align 4
  br label %103

73:                                               ; preds = %53
  %74 = load ptr, ptr %22, align 8, !tbaa !42
  %75 = getelementptr inbounds nuw %struct.rb_shape, ptr %74, i32 0, i32 3
  %76 = load i32, ptr %75, align 4, !tbaa !112
  %77 = load ptr, ptr %20, align 8, !tbaa !42
  %78 = getelementptr inbounds nuw %struct.rb_shape, ptr %77, i32 0, i32 3
  %79 = load i32, ptr %78, align 4, !tbaa !112
  %80 = icmp ne i32 %76, %79
  %81 = xor i1 %80, true
  %82 = xor i1 %81, true
  %83 = zext i1 %82 to i32
  %84 = sext i32 %83 to i64
  %85 = call i64 @llvm.expect.i64(i64 %84, i64 0)
  %86 = icmp ne i64 %85, 0
  br i1 %86, label %87, label %97

87:                                               ; preds = %73
  %88 = load ptr, ptr %16, align 8, !tbaa !40
  %89 = load i64, ptr %11, align 8, !tbaa !14
  %90 = load ptr, ptr %20, align 8, !tbaa !42
  %91 = getelementptr inbounds nuw %struct.rb_shape, ptr %90, i32 0, i32 3
  %92 = load i32, ptr %91, align 4, !tbaa !112
  %93 = load ptr, ptr %22, align 8, !tbaa !42
  %94 = getelementptr inbounds nuw %struct.rb_shape, ptr %93, i32 0, i32 3
  %95 = load i32, ptr %94, align 4, !tbaa !112
  %96 = load ptr, ptr %14, align 8, !tbaa !40
  call void %88(i64 noundef %89, i32 noundef %92, i32 noundef %95, ptr noundef %96)
  br label %97

97:                                               ; preds = %87, %73
  br label %98

98:                                               ; preds = %97
  %99 = load ptr, ptr %17, align 8, !tbaa !40
  %100 = load i64, ptr %11, align 8, !tbaa !14
  %101 = load ptr, ptr %22, align 8, !tbaa !42
  %102 = load ptr, ptr %14, align 8, !tbaa !40
  call void %99(i64 noundef %100, ptr noundef %101, ptr noundef %102)
  store i32 0, ptr %23, align 4
  br label %103

103:                                              ; preds = %69, %98
  call void @llvm.lifetime.end.p0(i64 8, ptr %22) #30
  %104 = load i32, ptr %23, align 4
  switch i32 %104, label %136 [
    i32 0, label %105
    i32 2, label %120
  ]

105:                                              ; preds = %103
  br label %106

106:                                              ; preds = %105, %40
  %107 = load ptr, ptr %15, align 8, !tbaa !40
  %108 = load i64, ptr %11, align 8, !tbaa !14
  %109 = load ptr, ptr %14, align 8, !tbaa !40
  %110 = call ptr %107(i64 noundef %108, ptr noundef %109)
  store ptr %110, ptr %24, align 8, !tbaa !49
  %111 = load i64, ptr %11, align 8, !tbaa !14
  %112 = load ptr, ptr %24, align 8, !tbaa !49
  %113 = load i32, ptr %21, align 4, !tbaa !51
  %114 = zext i32 %113 to i64
  %115 = getelementptr i64, ptr %112, i64 %114
  %116 = load i64, ptr %13, align 8, !tbaa !14
  %117 = call i64 @rb_obj_write(i64 noundef %111, ptr noundef %115, i64 noundef %116, ptr noundef @.str.16, i32 noundef 1522)
  %118 = load i32, ptr %21, align 4, !tbaa !51
  %119 = getelementptr inbounds nuw %struct.general_ivar_set_result, ptr %10, i32 0, i32 0
  store i32 %118, ptr %119, align 4, !tbaa !108
  store i32 1, ptr %23, align 4
  br label %136

120:                                              ; preds = %103, %39
  call void @llvm.lifetime.start.p0(i64 8, ptr %25) #30
  %121 = load ptr, ptr %19, align 8, !tbaa !40
  %122 = load i64, ptr %11, align 8, !tbaa !14
  %123 = load ptr, ptr %14, align 8, !tbaa !40
  %124 = call ptr %121(i64 noundef %122, ptr noundef %123)
  store ptr %124, ptr %25, align 8, !tbaa !12
  %125 = load ptr, ptr %25, align 8, !tbaa !12
  %126 = load i64, ptr %12, align 8, !tbaa !14
  %127 = load i64, ptr %13, align 8, !tbaa !14
  %128 = call i32 @rb_st_insert(ptr noundef %125, i64 noundef %126, i64 noundef %127)
  %129 = icmp ne i32 %128, 0
  %130 = getelementptr inbounds nuw %struct.general_ivar_set_result, ptr %10, i32 0, i32 1
  %131 = zext i1 %129 to i8
  store i8 %131, ptr %130, align 4, !tbaa !110
  %132 = getelementptr inbounds nuw %struct.general_ivar_set_result, ptr %10, i32 0, i32 0
  store i32 0, ptr %132, align 4, !tbaa !108
  %133 = load i64, ptr %11, align 8, !tbaa !14
  %134 = load i64, ptr %13, align 8, !tbaa !14
  %135 = call i64 @rb_obj_written(i64 noundef %133, i64 noundef 36, i64 noundef %134, ptr noundef @.str.16, i32 noundef 1534)
  call void @llvm.lifetime.end.p0(i64 8, ptr %25) #30
  store i32 1, ptr %23, align 4
  br label %136

136:                                              ; preds = %120, %106, %103
  call void @llvm.lifetime.end.p0(i64 8, ptr %20) #30
  %137 = load i64, ptr %10, align 4
  ret i64 %137
}

; Function Attrs: nounwind sspstrong uwtable
define hidden i32 @rb_obj_ivar_set(i64 noundef %0, i64 noundef %1, i64 noundef %2) #0 {
  %4 = alloca i64, align 8
  %5 = alloca i64, align 8
  %6 = alloca i64, align 8
  %7 = alloca %struct.general_ivar_set_result, align 4
  store i64 %0, ptr %4, align 8, !tbaa !14
  store i64 %1, ptr %5, align 8, !tbaa !14
  store i64 %2, ptr %6, align 8, !tbaa !14
  %8 = load i64, ptr %4, align 8, !tbaa !14
  %9 = load i64, ptr %5, align 8, !tbaa !14
  %10 = load i64, ptr %6, align 8, !tbaa !14
  %11 = call i64 @general_ivar_set(i64 noundef %8, i64 noundef %9, i64 noundef %10, ptr noundef null, ptr noundef @obj_ivar_set_shape_ivptr, ptr noundef @obj_ivar_set_shape_resize_ivptr, ptr noundef @obj_ivar_set_set_shape, ptr noundef @obj_ivar_set_transition_too_complex, ptr noundef @obj_ivar_set_too_complex_table)
  store i64 %11, ptr %7, align 4
  %12 = getelementptr inbounds nuw %struct.general_ivar_set_result, ptr %7, i32 0, i32 0
  %13 = load i32, ptr %12, align 4, !tbaa !108
  ret i32 %13
}