; Function Attrs: nounwind sspstrong uwtable
define hidden i32 @rb_obj_ivar_set(i64 noundef %0, i64 noundef %1, i64 noundef %2) local_unnamed_addr #0 {
  %4 = alloca i32, align 4
  call void @llvm.lifetime.start.p0(i64 4, ptr nonnull %4)
  %5 = tail call ptr @rb_shape_get_shape(i64 noundef %0) #27
  %6 = getelementptr inbounds nuw i8, ptr %5, i64 24
  %7 = load i8, ptr %6, align 8, !tbaa !39
  %8 = icmp eq i8 %7, 4
  br i1 %8, label %44, label %9, !prof !93

9:                                                ; preds = %3
  %10 = call zeroext i1 @rb_shape_get_iv_index(ptr noundef nonnull %5, i64 noundef %1, ptr noundef nonnull %4) #27
  br i1 %10, label %29, label %11

11:                                               ; preds = %9
  %12 = getelementptr inbounds nuw i8, ptr %5, i64 16
  %13 = load i32, ptr %12, align 8, !tbaa !103
  store i32 %13, ptr %4, align 4, !tbaa !98
  %14 = icmp eq i32 %13, -1
  br i1 %14, label %15, label %17

15:                                               ; preds = %11
  %16 = load i64, ptr @rb_eArgError, align 8, !tbaa !14
  call void (i64, ptr, ...) @rb_raise(i64 noundef %16, ptr noundef nonnull @.str.42) #28
  unreachable

17:                                               ; preds = %11
  %18 = call ptr @rb_shape_get_next(ptr noundef nonnull %5, i64 noundef %0, i64 noundef %1) #27
  %19 = getelementptr inbounds nuw i8, ptr %18, i64 24
  %20 = load i8, ptr %19, align 8, !tbaa !39
  %21 = icmp eq i8 %20, 4
  br i1 %21, label %28, label %22, !prof !93

22:                                               ; preds = %17
  %23 = getelementptr inbounds nuw i8, ptr %18, i64 20
  %24 = load i32, ptr %23, align 4, !tbaa !110
  %25 = getelementptr inbounds nuw i8, ptr %5, i64 20
  %26 = load i32, ptr %25, align 4, !tbaa !110
  %.not.i = icmp eq i32 %24, %26
  br i1 %.not.i, label %.thread.i, label %27, !prof !111

27:                                               ; preds = %22
  call fastcc void @obj_ivar_set_shape_resize_ivptr(i64 noundef %0, i32 noundef %26, i32 noundef %24) #27
  br label %.thread.i

.thread.i:                                        ; preds = %27, %22
  call void @rb_shape_set_shape(i64 noundef %0, ptr noundef nonnull %18) #27
  br label %29

28:                                               ; preds = %17
  call fastcc void @obj_ivar_set_transition_too_complex(i64 noundef %0) #27
  br label %44

29:                                               ; preds = %.thread.i, %9
  %30 = inttoptr i64 %0 to ptr
  %31 = load i64, ptr %30, align 8, !tbaa !28
  %32 = and i64 %31, 8192
  %.not.i.i = icmp eq i64 %32, 0
  %33 = getelementptr inbounds nuw i8, ptr %30, i64 16
  br i1 %.not.i.i, label %34, label %obj_ivar_set_shape_ivptr.exit

34:                                               ; preds = %29
  %35 = load ptr, ptr %33, align 8, !tbaa !32
  br label %obj_ivar_set_shape_ivptr.exit

obj_ivar_set_shape_ivptr.exit:                    ; preds = %29, %34
  %.0.i.i = phi ptr [ %35, %34 ], [ %33, %29 ]
  %36 = load i32, ptr %4, align 4, !tbaa !98
  %37 = zext i32 %36 to i64
  %38 = getelementptr i64, ptr %.0.i.i, i64 %37
  store i64 %2, ptr %38, align 8, !tbaa !14
  %39 = icmp eq i64 %2, 0
  %40 = and i64 %2, 7
  %41 = icmp ne i64 %40, 0
  %42 = or i1 %39, %41
  br i1 %42, label %general_ivar_set.exit, label %43

43:                                               ; preds = %obj_ivar_set_shape_ivptr.exit
  call void @rb_gc_writebarrier(i64 noundef %0, i64 noundef %2) #27
  %.pre.i = load i32, ptr %4, align 4, !tbaa !98
  br label %general_ivar_set.exit

44:                                               ; preds = %28, %3
  %45 = inttoptr i64 %0 to ptr
  %46 = getelementptr inbounds nuw i8, ptr %45, i64 16
  %47 = load ptr, ptr %46, align 8, !tbaa !32
  %48 = call i32 @rb_st_insert(ptr noundef %47, i64 noundef %1, i64 noundef %2) #27
  %49 = icmp eq i64 %2, 0
  %50 = and i64 %2, 7
  %51 = icmp ne i64 %50, 0
  %52 = or i1 %49, %51
  br i1 %52, label %general_ivar_set.exit, label %53

53:                                               ; preds = %44
  call void @rb_gc_writebarrier(i64 noundef %0, i64 noundef %2) #27
  br label %general_ivar_set.exit

general_ivar_set.exit:                            ; preds = %obj_ivar_set_shape_ivptr.exit, %43, %44, %53
  %.sroa.0.0.i = phi i32 [ 0, %44 ], [ 0, %53 ], [ %36, %obj_ivar_set_shape_ivptr.exit ], [ %.pre.i, %43 ]
  call void @llvm.lifetime.end.p0(i64 4, ptr nonnull %4)
  ret i32 %.sroa.0.0.i
}